; Function Attrs: mustprogress nounwind uwtable
define noundef zeroext i1 @_ZN7testing8internal6String32CaseInsensitiveWideCStringEqualsEPKwS3_(ptr noundef %0, ptr noundef %1) local_unnamed_addr #10 align 2 {
  %3 = icmp eq ptr %0, null
  %4 = icmp eq ptr %1, null
  %brmerge = or i1 %3, %4
  %.mux = and i1 %3, %4
  br i1 %brmerge, label %8, label %5

5:                                                ; preds = %2
  %6 = tail call i32 @wcscasecmp(ptr noundef nonnull %0, ptr noundef nonnull %1) #57
  %7 = icmp eq i32 %6, 0
  br label %8

8:                                                ; preds = %2, %5
  %.0 = phi i1 [ %7, %5 ], [ %.mux, %2 ]
  ret i1 %.0
}